; Function Attrs: uwtable
define hidden void @_ZThn48_N6recfun6solver11internalizeEP4expr(ptr noundef %this, ptr noundef %e) unnamed_addr #12 align 2 {
entry:
  %0 = getelementptr inbounds i8, ptr %this, i64 -48
  %m_num_scopes.i.i = getelementptr inbounds i8, ptr %this, i64 56
  %1 = load i32, ptr %m_num_scopes.i.i, align 8
  %cmp.not1.i.i = icmp eq i32 %1, 0
  br i1 %cmp.not1.i.i, label %_ZN6recfun6solver11internalizeEP4expr.exit, label %for.body.i.i

for.body.i.i:                                     ; preds = %entry, %for.body.i.i
  %vtable.i.i = load ptr, ptr %0, align 8
  %vfn.i.i = getelementptr inbounds i8, ptr %vtable.i.i, i64 496
  %2 = load ptr, ptr %vfn.i.i, align 8
  tail call void %2(ptr noundef nonnull align 8 dereferenceable(108) %0)
  %3 = load i32, ptr %m_num_scopes.i.i, align 8
  %dec.i.i = add i32 %3, -1
  store i32 %dec.i.i, ptr %m_num_scopes.i.i, align 8
  %cmp.not.i.i = icmp eq i32 %dec.i.i, 0
  br i1 %cmp.not.i.i, label %_ZN6recfun6solver11internalizeEP4expr.exit, label %for.body.i.i, !llvm.loop !25

_ZN6recfun6solver11internalizeEP4expr.exit:       ; preds = %for.body.i.i, %entry
  %m.i = getelementptr inbounds i8, ptr %this, i64 24
  %4 = load ptr, ptr %m.i, align 8
  %call.i = tail call noundef zeroext i1 @_ZN3euf15th_internalizer9visit_recER11ast_managerP4exprbb(ptr noundef nonnull align 8 dereferenceable(24) %this, ptr noundef nonnull align 8 dereferenceable(976) %4, ptr noundef %e, i1 noundef zeroext false, i1 noundef zeroext false)
  ret void
}